target datalayout = "e-m:e-p270:32:32-p271:32:32-p272:64:64-i64:64-i128:128-f80:128-n8:16:32:64-S128"
target triple = "x86_64-pc-linux-gnu"

%struct.sview_config_t = type { ptr, ptr, ptr, ptr, ptr, ptr, ptr, i16, i16, i8, i16, i32, i32, i32, i8, i32, i32, i32, i32, [10 x ptr], [10 x %struct.page_opts_t], [10 x i8], i16, i8, i8, i8, i8, i16, i32 }
%struct.page_opts_t = type { ptr, i8, ptr, ptr }
%struct.node_info_msg = type { i64, i32, ptr }

@get_new_info_node.last = internal global i64 0, align 8
@get_new_info_node.last_flags = internal global i16 0, align 2
@g_node_info_ptr = external global ptr, align 8
@working_sview_config = external global %struct.sview_config_t, align 8
@cluster_flags = external global i32, align 4
@g_topo_info_msg_ptr = external global ptr, align 8
@default_sview_config = external global %struct.sview_config_t, align 8

; Function Attrs: nounwind uwtable
define dso_local i32 @get_new_info_node(ptr noundef %0, i32 noundef %1) #0 {
  %3 = alloca i32, align 4
  %4 = alloca ptr, align 8
  %5 = alloca i32, align 4
  %6 = alloca ptr, align 8
  %7 = alloca i16, align 2
  %8 = alloca i32, align 4
  %9 = alloca i64, align 8
  %10 = alloca i64, align 8
  %11 = alloca i32, align 4
  store ptr %0, ptr %4, align 8
  store i32 %1, ptr %5, align 4
  call void @llvm.lifetime.start.p0(i64 8, ptr %6) #7
  store ptr null, ptr %6, align 8
  call void @llvm.lifetime.start.p0(i64 2, ptr %7) #7
  store i16 8, ptr %7, align 2
  call void @llvm.lifetime.start.p0(i64 4, ptr %8) #7
  store i32 1900, ptr %8, align 4
  call void @llvm.lifetime.start.p0(i64 8, ptr %9) #7
  %12 = call i64 @time(ptr noundef null) #7
  store i64 %12, ptr %9, align 8
  call void @llvm.lifetime.start.p0(i64 8, ptr %10) #7
  %13 = load i64, ptr %9, align 8
  %14 = load i64, ptr @get_new_info_node.last, align 8
  %15 = sub nsw i64 %13, %14
  store i64 %15, ptr %10, align 8
  %16 = load i64, ptr %10, align 8
  %17 = icmp slt i64 %16, 2
  br i1 %17, label %18, label %19

18:                                               ; preds = %2
  store i32 0, ptr %5, align 4
  br label %19

19:                                               ; preds = %18, %2
  %20 = load ptr, ptr @g_node_info_ptr, align 8
  %21 = icmp ne ptr %20, null
  br i1 %21, label %22, label %40

22:                                               ; preds = %19
  %23 = load i32, ptr %5, align 4
  %24 = icmp ne i32 %23, 0
  br i1 %24, label %40, label %25

25:                                               ; preds = %22
  %26 = load i64, ptr %10, align 8
  %27 = load i16, ptr getelementptr inbounds nuw (%struct.sview_config_t, ptr @working_sview_config, i32 0, i32 22), align 2
  %28 = zext i16 %27 to i64
  %29 = icmp slt i64 %26, %28
  br i1 %29, label %30, label %40

30:                                               ; preds = %25
  %31 = load ptr, ptr %4, align 8
  %32 = load ptr, ptr %31, align 8
  %33 = load ptr, ptr @g_node_info_ptr, align 8
  %34 = icmp ne ptr %32, %33
  br i1 %34, label %35, label %36

35:                                               ; preds = %30
  store i32 0, ptr %8, align 4
  br label %36

36:                                               ; preds = %35, %30
  %37 = load ptr, ptr @g_node_info_ptr, align 8
  %38 = load ptr, ptr %4, align 8
  store ptr %37, ptr %38, align 8
  %39 = load i32, ptr %8, align 4
  store i32 %39, ptr %3, align 4
  store i32 1, ptr %11, align 4
  br label %111

40:                                               ; preds = %25, %22, %19
  %41 = load i64, ptr %9, align 8
  store i64 %41, ptr @get_new_info_node.last, align 8
  %42 = load i32, ptr @cluster_flags, align 4
  %43 = zext i32 %42 to i64
  %44 = and i64 %43, 2048
  %45 = icmp ne i64 %44, 0
  br i1 %45, label %46, label %51

46:                                               ; preds = %40
  %47 = load i16, ptr %7, align 2
  %48 = zext i16 %47 to i64
  %49 = or i64 %48, 64
  %50 = trunc i64 %49 to i16
  store i16 %50, ptr %7, align 2
  br label %51

51:                                               ; preds = %46, %40
  %52 = load i16, ptr %7, align 2
  %53 = zext i16 %52 to i64
  %54 = or i64 %53, 1
  %55 = trunc i64 %54 to i16
  store i16 %55, ptr %7, align 2
  %56 = load ptr, ptr @g_node_info_ptr, align 8
  %57 = icmp ne ptr %56, null
  br i1 %57, label %58, label %85

58:                                               ; preds = %51
  %59 = load i16, ptr %7, align 2
  %60 = zext i16 %59 to i32
  %61 = load i16, ptr @get_new_info_node.last_flags, align 2
  %62 = zext i16 %61 to i32
  %63 = icmp ne i32 %60, %62
  br i1 %63, label %64, label %67

64:                                               ; preds = %58
  %65 = load ptr, ptr @g_node_info_ptr, align 8
  %66 = getelementptr inbounds nuw %struct.node_info_msg, ptr %65, i32 0, i32 0
  store i64 0, ptr %66, align 8
  br label %67

67:                                               ; preds = %64, %58
  %68 = load ptr, ptr @g_node_info_ptr, align 8
  %69 = getelementptr inbounds nuw %struct.node_info_msg, ptr %68, i32 0, i32 0
  %70 = load i64, ptr %69, align 8
  %71 = load i16, ptr %7, align 2
  %72 = call i32 @slurm_load_node(i64 noundef %70, ptr noundef %6, i16 noundef zeroext %71)
  store i32 %72, ptr %8, align 4
  %73 = load i32, ptr %8, align 4
  %74 = icmp eq i32 %73, 0
  br i1 %74, label %75, label %77

75:                                               ; preds = %67
  %76 = load ptr, ptr @g_node_info_ptr, align 8
  call void @slurm_free_node_info_msg(ptr noundef %76)
  br label %84

77:                                               ; preds = %67
  %78 = call ptr @__errno_location() #8
  %79 = load i32, ptr %78, align 4
  %80 = icmp eq i32 %79, 1900
  br i1 %80, label %81, label %83

81:                                               ; preds = %77
  store i32 1900, ptr %8, align 4
  %82 = load ptr, ptr @g_node_info_ptr, align 8
  store ptr %82, ptr %6, align 8
  br label %83

83:                                               ; preds = %81, %77
  br label %84

84:                                               ; preds = %83, %75
  br label %88

85:                                               ; preds = %51
  store ptr null, ptr %6, align 8
  %86 = load i16, ptr %7, align 2
  %87 = call i32 @slurm_load_node(i64 noundef 0, ptr noundef %6, i16 noundef zeroext %86)
  store i32 %87, ptr %8, align 4
  br label %88

88:                                               ; preds = %85, %84
  %89 = load i16, ptr %7, align 2
  store i16 %89, ptr @get_new_info_node.last_flags, align 2
  %90 = load ptr, ptr %6, align 8
  store ptr %90, ptr @g_node_info_ptr, align 8
  %91 = load ptr, ptr @g_node_info_ptr, align 8
  %92 = icmp ne ptr %91, null
  br i1 %92, label %93, label %99

93:                                               ; preds = %88
  %94 = load ptr, ptr %4, align 8
  %95 = load ptr, ptr %94, align 8
  %96 = load ptr, ptr @g_node_info_ptr, align 8
  %97 = icmp ne ptr %95, %96
  br i1 %97, label %98, label %99

98:                                               ; preds = %93
  store i32 0, ptr %8, align 4
  br label %99

99:                                               ; preds = %98, %93, %88
  %100 = load ptr, ptr @g_node_info_ptr, align 8
  %101 = load ptr, ptr %4, align 8
  store ptr %100, ptr %101, align 8
  %102 = load ptr, ptr @g_topo_info_msg_ptr, align 8
  %103 = icmp ne ptr %102, null
  br i1 %103, label %109, label %104

104:                                              ; preds = %99
  %105 = load i8, ptr getelementptr inbounds nuw (%struct.sview_config_t, ptr @default_sview_config, i32 0, i32 14), align 4, !range !12, !noundef !13
  %106 = trunc i8 %105 to i1
  br i1 %106, label %107, label %109

107:                                              ; preds = %104
  %108 = call i32 @get_topo_conf()
  br label %109

109:                                              ; preds = %107, %104, %99
  %110 = load i32, ptr %8, align 4
  store i32 %110, ptr %3, align 4
  store i32 1, ptr %11, align 4
  br label %111

111:                                              ; preds = %109, %36
  call void @llvm.lifetime.end.p0(i64 8, ptr %10) #7
  call void @llvm.lifetime.end.p0(i64 8, ptr %9) #7
  call void @llvm.lifetime.end.p0(i64 4, ptr %8) #7
  call void @llvm.lifetime.end.p0(i64 2, ptr %7) #7
  call void @llvm.lifetime.end.p0(i64 8, ptr %6) #7
  %112 = load i32, ptr %3, align 4
  ret i32 %112
}