; Function Attrs: nounwind uwtable
define dso_local i32 @get_new_info_node(ptr noundef captures(none) %0, i32 noundef %1) local_unnamed_addr #0 {
  %3 = alloca ptr, align 8
  call void @llvm.lifetime.start.p0(i64 8, ptr nonnull %3) #11
  store ptr null, ptr %3, align 8
  %4 = tail call i64 @time(ptr noundef null) #11
  %5 = load i64, ptr @get_new_info_node.last, align 8
  %6 = sub nsw i64 %4, %5
  %7 = icmp slt i64 %6, 2
  %8 = load ptr, ptr @g_node_info_ptr, align 8
  %9 = icmp ne ptr %8, null
  %10 = icmp eq i32 %1, 0
  %.not44 = or i1 %10, %7
  %or.cond.not41 = and i1 %9, %.not44
  %11 = load i16, ptr getelementptr inbounds nuw (i8, ptr @working_sview_config, i64 506), align 2
  %12 = zext i16 %11 to i64
  %13 = icmp slt i64 %6, %12
  %or.cond35 = select i1 %or.cond.not41, i1 %13, i1 false
  br i1 %or.cond35, label %14, label %16

14:                                               ; preds = %2
  %15 = load ptr, ptr %0, align 8
  %.not = icmp eq ptr %15, %8
  %spec.select36 = select i1 %.not, i32 1900, i32 0
  store ptr %8, ptr %0, align 8
  br label %48

16:                                               ; preds = %2
  store i64 %4, ptr @get_new_info_node.last, align 8
  %17 = load i32, ptr @cluster_flags, align 4
  %18 = and i32 %17, 2048
  %.not27 = icmp eq i32 %18, 0
  %spec.select37 = select i1 %.not27, i16 9, i16 73
  br i1 %9, label %19, label %35

19:                                               ; preds = %16
  %20 = load i16, ptr @get_new_info_node.last_flags, align 2
  %.not29 = icmp eq i16 %spec.select37, %20
  br i1 %.not29, label %22, label %21

21:                                               ; preds = %19
  store i64 0, ptr %8, align 8
  %.pre = load ptr, ptr @g_node_info_ptr, align 8
  br label %22

22:                                               ; preds = %21, %19
  %23 = phi ptr [ %.pre, %21 ], [ %8, %19 ]
  %24 = load i64, ptr %23, align 8
  %25 = call i32 @slurm_load_node(i64 noundef %24, ptr noundef nonnull %3, i16 noundef zeroext %spec.select37) #11
  %26 = icmp eq i32 %25, 0
  br i1 %26, label %27, label %29

27:                                               ; preds = %22
  %28 = load ptr, ptr @g_node_info_ptr, align 8
  call void @slurm_free_node_info_msg(ptr noundef %28) #11
  br label %thread-pre-split

29:                                               ; preds = %22
  %30 = tail call ptr @__errno_location() #12
  %31 = load i32, ptr %30, align 4
  %32 = icmp eq i32 %31, 1900
  br i1 %32, label %33, label %thread-pre-split

33:                                               ; preds = %29
  %34 = load ptr, ptr @g_node_info_ptr, align 8
  store ptr %34, ptr %3, align 8
  br label %37

35:                                               ; preds = %16
  store ptr null, ptr %3, align 8
  %36 = call i32 @slurm_load_node(i64 noundef 0, ptr noundef nonnull %3, i16 noundef zeroext %spec.select37) #11
  br label %thread-pre-split

thread-pre-split:                                 ; preds = %35, %29, %27
  %.1.ph = phi i32 [ %36, %35 ], [ %25, %29 ], [ 0, %27 ]
  %.pr = load ptr, ptr %3, align 8
  br label %37

37:                                               ; preds = %thread-pre-split, %33
  %38 = phi ptr [ %.pr, %thread-pre-split ], [ %34, %33 ]
  %.1 = phi i32 [ %.1.ph, %thread-pre-split ], [ 1900, %33 ]
  store i16 %spec.select37, ptr @get_new_info_node.last_flags, align 2
  store ptr %38, ptr @g_node_info_ptr, align 8
  %.not30 = icmp eq ptr %38, null
  br i1 %.not30, label %41, label %39

39:                                               ; preds = %37
  %40 = load ptr, ptr %0, align 8
  %.not31 = icmp eq ptr %40, %38
  %spec.select38 = select i1 %.not31, i32 %.1, i32 0
  br label %41

41:                                               ; preds = %39, %37
  %.2 = phi i32 [ %.1, %37 ], [ %spec.select38, %39 ]
  store ptr %38, ptr %0, align 8
  %42 = load ptr, ptr @g_topo_info_msg_ptr, align 8
  %.not32 = icmp eq ptr %42, null
  br i1 %.not32, label %43, label %48

43:                                               ; preds = %41
  %44 = load i8, ptr getelementptr inbounds nuw (i8, ptr @default_sview_config, i64 76), align 4, !range !11, !noundef !12
  %45 = trunc nuw i8 %44 to i1
  br i1 %45, label %46, label %48

46:                                               ; preds = %43
  %47 = call i32 @get_topo_conf() #11
  br label %48

48:                                               ; preds = %41, %43, %46, %14
  %.0 = phi i32 [ %spec.select36, %14 ], [ %.2, %46 ], [ %.2, %43 ], [ %.2, %41 ]
  call void @llvm.lifetime.end.p0(i64 8, ptr nonnull %3) #11
  ret i32 %.0
}